target datalayout = "e-m:e-p270:32:32-p271:32:32-p272:64:64-i64:64-i128:128-f80:128-n8:16:32:64-S128"
target triple = "x86_64-pc-linux-gnu"

@RS_init = internal global i32 0, align 4
@Index_of = internal global [256 x i32] zeroinitializer, align 16
@Gg = internal global [49 x i32] zeroinitializer, align 16
@Alpha_to = internal global [256 x i32] zeroinitializer, align 16

; Function Attrs: nounwind null_pointer_is_valid sspstrong uwtable
define internal i32 @modnn(i32 noundef %0) #2 {
  %2 = alloca i32, align 4
  store i32 %0, ptr %2, align 4
  br label %3

3:                                                ; preds = %6, %1
  %4 = load i32, ptr %2, align 4
  %5 = icmp sge i32 %4, 255
  br i1 %5, label %6, label %14

6:                                                ; preds = %3
  %7 = load i32, ptr %2, align 4
  %8 = sub i32 %7, 255
  store i32 %8, ptr %2, align 4
  %9 = load i32, ptr %2, align 4
  %10 = ashr i32 %9, 8
  %11 = load i32, ptr %2, align 4
  %12 = and i32 %11, 255
  %13 = add i32 %10, %12
  store i32 %13, ptr %2, align 4
  br label %3, !llvm.loop !11

14:                                               ; preds = %3
  %15 = load i32, ptr %2, align 4
  ret i32 %15
}

; Function Attrs: null_pointer_is_valid sspstrong uwtable
define hidden i32 @encode_rs(ptr noundef %0, ptr noundef %1) #0 {
  %3 = alloca ptr, align 8
  %4 = alloca ptr, align 8
  %5 = alloca i32, align 4
  %6 = alloca i32, align 4
  %7 = alloca i32, align 4
  %8 = alloca i32, align 4
  store ptr %0, ptr %3, align 8
  store ptr %1, ptr %4, align 8
  call void @llvm.lifetime.start.p0(i64 4, ptr %5) #3
  call void @llvm.lifetime.start.p0(i64 4, ptr %6) #3
  call void @llvm.lifetime.start.p0(i64 4, ptr %7) #3
  %9 = load i32, ptr @RS_init, align 4
  %10 = icmp ne i32 %9, 0
  br i1 %10, label %12, label %11

11:                                               ; preds = %2
  call void @init_rs()
  br label %12

12:                                               ; preds = %11, %2
  call void @llvm.lifetime.start.p0(i64 4, ptr %8) #3
  store i32 47, ptr %8, align 4
  br label %13

13:                                               ; preds = %21, %12
  %14 = load i32, ptr %8, align 4
  %15 = icmp sge i32 %14, 0
  br i1 %15, label %16, label %24

16:                                               ; preds = %13
  %17 = load ptr, ptr %4, align 8
  %18 = load i32, ptr %8, align 4
  %19 = sext i32 %18 to i64
  %20 = getelementptr i8, ptr %17, i64 %19
  store i8 0, ptr %20, align 1
  br label %21

21:                                               ; preds = %16
  %22 = load i32, ptr %8, align 4
  %23 = add i32 %22, -1
  store i32 %23, ptr %8, align 4
  br label %13, !llvm.loop !6

24:                                               ; preds = %13
  call void @llvm.lifetime.end.p0(i64 4, ptr %8) #3
  store i32 206, ptr %5, align 4
  br label %25

25:                                               ; preds = %141, %24
  %26 = load i32, ptr %5, align 4
  %27 = icmp sge i32 %26, 0
  br i1 %27, label %28, label %144

28:                                               ; preds = %25
  %29 = load ptr, ptr %3, align 8
  %30 = load i32, ptr %5, align 4
  %31 = sub i32 207, %30
  %32 = sub i32 %31, 1
  %33 = sext i32 %32 to i64
  %34 = getelementptr i8, ptr %29, i64 %33
  %35 = load i8, ptr %34, align 1
  %36 = zext i8 %35 to i32
  %37 = load ptr, ptr %4, align 8
  %38 = getelementptr i8, ptr %37, i64 0
  %39 = load i8, ptr %38, align 1
  %40 = zext i8 %39 to i32
  %41 = xor i32 %36, %40
  %42 = sext i32 %41 to i64
  %43 = getelementptr [256 x i32], ptr @Index_of, i64 0, i64 %42
  %44 = load i32, ptr %43, align 4
  store i32 %44, ptr %7, align 4
  %45 = load i32, ptr %7, align 4
  %46 = icmp ne i32 %45, 255
  br i1 %46, label %47, label %115

47:                                               ; preds = %28
  store i32 47, ptr %6, align 4
  br label %48

48:                                               ; preds = %101, %47
  %49 = load i32, ptr %6, align 4
  %50 = icmp sgt i32 %49, 0
  br i1 %50, label %51, label %104

51:                                               ; preds = %48
  %52 = load i32, ptr %6, align 4
  %53 = sext i32 %52 to i64
  %54 = getelementptr [49 x i32], ptr @Gg, i64 0, i64 %53
  %55 = load i32, ptr %54, align 4
  %56 = icmp ne i32 %55, 255
  br i1 %56, label %57, label %85

57:                                               ; preds = %51
  %58 = load ptr, ptr %4, align 8
  %59 = load i32, ptr %6, align 4
  %60 = sub i32 %59, 1
  %61 = sub i32 48, %60
  %62 = sub i32 %61, 1
  %63 = sext i32 %62 to i64
  %64 = getelementptr i8, ptr %58, i64 %63
  %65 = load i8, ptr %64, align 1
  %66 = zext i8 %65 to i32
  %67 = load i32, ptr %6, align 4
  %68 = sext i32 %67 to i64
  %69 = getelementptr [49 x i32], ptr @Gg, i64 0, i64 %68
  %70 = load i32, ptr %69, align 4
  %71 = load i32, ptr %7, align 4
  %72 = add i32 %70, %71
  %73 = call i32 @modnn(i32 noundef %72)
  %74 = sext i32 %73 to i64
  %75 = getelementptr [256 x i32], ptr @Alpha_to, i64 0, i64 %74
  %76 = load i32, ptr %75, align 4
  %77 = xor i32 %66, %76
  %78 = trunc i32 %77 to i8
  %79 = load ptr, ptr %4, align 8
  %80 = load i32, ptr %6, align 4
  %81 = sub i32 48, %80
  %82 = sub i32 %81, 1
  %83 = sext i32 %82 to i64
  %84 = getelementptr i8, ptr %79, i64 %83
  store i8 %78, ptr %84, align 1
  br label %100

85:                                               ; preds = %51
  %86 = load ptr, ptr %4, align 8
  %87 = load i32, ptr %6, align 4
  %88 = sub i32 %87, 1
  %89 = sub i32 48, %88
  %90 = sub i32 %89, 1
  %91 = sext i32 %90 to i64
  %92 = getelementptr i8, ptr %86, i64 %91
  %93 = load i8, ptr %92, align 1
  %94 = load ptr, ptr %4, align 8
  %95 = load i32, ptr %6, align 4
  %96 = sub i32 48, %95
  %97 = sub i32 %96, 1
  %98 = sext i32 %97 to i64
  %99 = getelementptr i8, ptr %94, i64 %98
  store i8 %93, ptr %99, align 1
  br label %100

100:                                              ; preds = %85, %57
  br label %101

101:                                              ; preds = %100
  %102 = load i32, ptr %6, align 4
  %103 = add i32 %102, -1
  store i32 %103, ptr %6, align 4
  br label %48, !llvm.loop !8

104:                                              ; preds = %48
  %105 = load i32, ptr @Gg, align 16
  %106 = load i32, ptr %7, align 4
  %107 = add i32 %105, %106
  %108 = call i32 @modnn(i32 noundef %107)
  %109 = sext i32 %108 to i64
  %110 = getelementptr [256 x i32], ptr @Alpha_to, i64 0, i64 %109
  %111 = load i32, ptr %110, align 4
  %112 = trunc i32 %111 to i8
  %113 = load ptr, ptr %4, align 8
  %114 = getelementptr i8, ptr %113, i64 47
  store i8 %112, ptr %114, align 1
  br label %140

115:                                              ; preds = %28
  store i32 47, ptr %6, align 4
  br label %116

116:                                              ; preds = %134, %115
  %117 = load i32, ptr %6, align 4
  %118 = icmp sgt i32 %117, 0
  br i1 %118, label %119, label %137

119:                                              ; preds = %116
  %120 = load ptr, ptr %4, align 8
  %121 = load i32, ptr %6, align 4
  %122 = sub i32 %121, 1
  %123 = sub i32 48, %122
  %124 = sub i32 %123, 1
  %125 = sext i32 %124 to i64
  %126 = getelementptr i8, ptr %120, i64 %125
  %127 = load i8, ptr %126, align 1
  %128 = load ptr, ptr %4, align 8
  %129 = load i32, ptr %6, align 4
  %130 = sub i32 48, %129
  %131 = sub i32 %130, 1
  %132 = sext i32 %131 to i64
  %133 = getelementptr i8, ptr %128, i64 %132
  store i8 %127, ptr %133, align 1
  br label %134

134:                                              ; preds = %119
  %135 = load i32, ptr %6, align 4
  %136 = add i32 %135, -1
  store i32 %136, ptr %6, align 4
  br label %116, !llvm.loop !9

137:                                              ; preds = %116
  %138 = load ptr, ptr %4, align 8
  %139 = getelementptr i8, ptr %138, i64 47
  store i8 0, ptr %139, align 1
  br label %140

140:                                              ; preds = %137, %104
  br label %141

141:                                              ; preds = %140
  %142 = load i32, ptr %5, align 4
  %143 = add i32 %142, -1
  store i32 %143, ptr %5, align 4
  br label %25, !llvm.loop !10

144:                                              ; preds = %25
  call void @llvm.lifetime.end.p0(i64 4, ptr %7) #3
  call void @llvm.lifetime.end.p0(i64 4, ptr %6) #3
  call void @llvm.lifetime.end.p0(i64 4, ptr %5) #3
  ret i32 0
}