; Function Attrs: nofree norecurse nosync nounwind null_pointer_is_valid sspstrong memory(readwrite, inaccessiblemem: none) uwtable
define hidden noundef i32 @encode_rs(ptr noundef readonly captures(none) %0, ptr noundef captures(none) initializes((0, 48)) %1) local_unnamed_addr #0 {
  %.b = load i1, ptr @RS_init, align 4
  br i1 %.b, label %.preheader41, label %3

3:                                                ; preds = %2
  tail call fastcc void @init_rs()
  br label %.preheader41

.preheader41:                                     ; preds = %3, %2
  tail call void @llvm.memset.p0.i64(ptr noundef align 1 dereferenceable(48) %1, i8 0, i64 48, i1 false)
  %4 = load i32, ptr @Gg, align 16
  %5 = getelementptr i8, ptr %1, i64 47
  %scevgep = getelementptr i8, ptr %1, i64 1
  br label %6

6:                                                ; preds = %.preheader41, %49
  %indvars.iv53 = phi i64 [ 206, %.preheader41 ], [ %indvars.iv.next54, %49 ]
  %7 = sub nuw nsw i64 206, %indvars.iv53
  %8 = getelementptr i8, ptr %0, i64 %7
  %9 = load i8, ptr %8, align 1
  %10 = load i8, ptr %1, align 1
  %11 = xor i8 %10, %9
  %12 = zext i8 %11 to i64
  %13 = getelementptr [256 x i32], ptr @Index_of, i64 0, i64 %12
  %14 = load i32, ptr %13, align 4
  %.not = icmp eq i32 %14, 255
  br i1 %.not, label %.preheader.preheader, label %.preheader40

.preheader.preheader:                             ; preds = %6
  tail call void @llvm.memmove.p0.p0.i64(ptr noundef align 1 dereferenceable(47) %1, ptr noundef align 1 dereferenceable(47) %scevgep, i64 47, i1 false)
  br label %49

.preheader40:                                     ; preds = %6, %33
  %indvars.iv = phi i64 [ %indvars.iv.next, %33 ], [ 47, %6 ]
  %15 = getelementptr [49 x i32], ptr @Gg, i64 0, i64 %indvars.iv
  %16 = load i32, ptr %15, align 4
  %.not35 = icmp eq i32 %16, 255
  %17 = sub nuw nsw i64 48, %indvars.iv
  %18 = getelementptr i8, ptr %1, i64 %17
  %19 = load i8, ptr %18, align 1
  br i1 %.not35, label %33, label %20

20:                                               ; preds = %.preheader40
  %21 = add i32 %16, %14
  %22 = icmp sgt i32 %21, 254
  br i1 %22, label %.lr.ph.i, label %modnn.exit

.lr.ph.i:                                         ; preds = %20, %.lr.ph.i
  %.05.i = phi i32 [ %26, %.lr.ph.i ], [ %21, %20 ]
  %23 = add nsw i32 %.05.i, -255
  %24 = lshr i32 %23, 8
  %25 = and i32 %23, 255
  %26 = add nuw nsw i32 %24, %25
  %27 = icmp samesign ugt i32 %26, 254
  br i1 %27, label %.lr.ph.i, label %modnn.exit, !llvm.loop !6

modnn.exit:                                       ; preds = %.lr.ph.i, %20
  %.0.lcssa.i = phi i32 [ %21, %20 ], [ %26, %.lr.ph.i ]
  %28 = sext i32 %.0.lcssa.i to i64
  %29 = getelementptr [256 x i32], ptr @Alpha_to, i64 0, i64 %28
  %30 = load i32, ptr %29, align 4
  %31 = trunc i32 %30 to i8
  %32 = xor i8 %19, %31
  br label %33

33:                                               ; preds = %.preheader40, %modnn.exit
  %.sink = phi i8 [ %32, %modnn.exit ], [ %19, %.preheader40 ]
  %34 = sub nuw nsw i64 47, %indvars.iv
  %35 = getelementptr i8, ptr %1, i64 %34
  store i8 %.sink, ptr %35, align 1
  %indvars.iv.next = add nsw i64 %indvars.iv, -1
  %36 = icmp ugt i64 %indvars.iv, 1
  br i1 %36, label %.preheader40, label %37, !llvm.loop !8

37:                                               ; preds = %33
  %38 = add i32 %4, %14
  %39 = icmp sgt i32 %38, 254
  br i1 %39, label %.lr.ph.i37, label %modnn.exit39

.lr.ph.i37:                                       ; preds = %37, %.lr.ph.i37
  %.05.i38 = phi i32 [ %43, %.lr.ph.i37 ], [ %38, %37 ]
  %40 = add nsw i32 %.05.i38, -255
  %41 = lshr i32 %40, 8
  %42 = and i32 %40, 255
  %43 = add nuw nsw i32 %41, %42
  %44 = icmp samesign ugt i32 %43, 254
  br i1 %44, label %.lr.ph.i37, label %modnn.exit39, !llvm.loop !6

modnn.exit39:                                     ; preds = %.lr.ph.i37, %37
  %.0.lcssa.i36 = phi i32 [ %38, %37 ], [ %43, %.lr.ph.i37 ]
  %45 = sext i32 %.0.lcssa.i36 to i64
  %46 = getelementptr [256 x i32], ptr @Alpha_to, i64 0, i64 %45
  %47 = load i32, ptr %46, align 4
  %48 = trunc i32 %47 to i8
  br label %49

49:                                               ; preds = %modnn.exit39, %.preheader.preheader
  %storemerge = phi i8 [ %48, %modnn.exit39 ], [ 0, %.preheader.preheader ]
  store i8 %storemerge, ptr %5, align 1
  %indvars.iv.next54 = add nsw i64 %indvars.iv53, -1
  %.not56 = icmp eq i64 %indvars.iv53, 0
  br i1 %.not56, label %50, label %6, !llvm.loop !9

50:                                               ; preds = %49
  ret i32 0
}